target datalayout = "e-m:e-p270:32:32-p271:32:32-p272:64:64-i64:64-i128:128-f80:128-n8:16:32:64-S128"
target triple = "x86_64-unknown-linux-gnu"

; Function Attrs: mustprogress nounwind uwtable
define linkonce_odr noundef nonnull align 8 dereferenceable(8) ptr @_ZSt3minImERKT_S2_S2_(ptr noundef nonnull align 8 dereferenceable(8) %__a, ptr noundef nonnull align 8 dereferenceable(8) %__b) #4 comdat {
entry:
  %retval = alloca ptr, align 8
  %__a.addr = alloca ptr, align 8
  %__b.addr = alloca ptr, align 8
  store ptr %__a, ptr %__a.addr, align 8
  store ptr %__b, ptr %__b.addr, align 8
  %0 = load ptr, ptr %__b.addr, align 8
  %1 = load i64, ptr %0, align 8
  %2 = load ptr, ptr %__a.addr, align 8
  %3 = load i64, ptr %2, align 8
  %cmp = icmp ult i64 %1, %3
  br i1 %cmp, label %if.then, label %if.end

if.then:                                          ; preds = %entry
  %4 = load ptr, ptr %__b.addr, align 8
  store ptr %4, ptr %retval, align 8
  br label %return

if.end:                                           ; preds = %entry
  %5 = load ptr, ptr %__a.addr, align 8
  store ptr %5, ptr %retval, align 8
  br label %return

return:                                           ; preds = %if.end, %if.then
  %6 = load ptr, ptr %retval, align 8
  ret ptr %6
}

; Function Attrs: mustprogress nounwind uwtable
define noundef zeroext i8 @_ZN8proxygen5http212parseDataEndERN5folly2io6CursorEmmRm(ptr noundef nonnull align 8 dereferenceable(56) %cursor, i64 noundef %bufLen, i64 noundef %pendingDataFramePaddingBytes, ptr noundef nonnull align 8 dereferenceable(8) %toSkip) #4 personality ptr @__gxx_personality_v0 {
entry:
  %cursor.addr = alloca ptr, align 8
  %bufLen.addr = alloca i64, align 8
  %pendingDataFramePaddingBytes.addr = alloca i64, align 8
  %toSkip.addr = alloca ptr, align 8
  store ptr %cursor, ptr %cursor.addr, align 8
  store i64 %bufLen, ptr %bufLen.addr, align 8
  store i64 %pendingDataFramePaddingBytes, ptr %pendingDataFramePaddingBytes.addr, align 8
  store ptr %toSkip, ptr %toSkip.addr, align 8
  %call = invoke noundef nonnull align 8 dereferenceable(8) ptr @_ZSt3minImERKT_S2_S2_(ptr noundef nonnull align 8 dereferenceable(8) %pendingDataFramePaddingBytes.addr, ptr noundef nonnull align 8 dereferenceable(8) %bufLen.addr)
          to label %invoke.cont unwind label %terminate.lpad

invoke.cont:                                      ; preds = %entry
  %0 = load i64, ptr %call, align 8
  %1 = load ptr, ptr %toSkip.addr, align 8
  store i64 %0, ptr %1, align 8
  %2 = load ptr, ptr %cursor.addr, align 8
  %3 = load ptr, ptr %toSkip.addr, align 8
  %4 = load i64, ptr %3, align 8
  %conv = trunc i64 %4 to i8
  %call2 = invoke noundef zeroext i8 @_ZN8proxygen5http212_GLOBAL__N_111skipPaddingERN5folly2io6CursorEhb(ptr noundef nonnull align 8 dereferenceable(56) %2, i8 noundef zeroext %conv, i1 noundef zeroext true)
          to label %invoke.cont1 unwind label %terminate.lpad

invoke.cont1:                                     ; preds = %invoke.cont
  ret i8 %call2

terminate.lpad:                                   ; preds = %invoke.cont, %entry
  %5 = landingpad { ptr, i32 }
          catch ptr null
  %6 = extractvalue { ptr, i32 } %5, 0
  call void @__clang_call_terminate(ptr %6) #19
  unreachable
}