; Function Attrs: mustprogress nounwind uwtable
define noundef zeroext i8 @_ZN8proxygen5http212parseDataEndERN5folly2io6CursorEmmRm(ptr noundef nonnull align 8 dereferenceable(56) %cursor, i64 noundef %bufLen, i64 noundef %pendingDataFramePaddingBytes, ptr nocapture noundef nonnull writeonly align 8 dereferenceable(8) %toSkip) local_unnamed_addr #5 personality ptr @__gxx_personality_v0 {
entry:
  %.sroa.speculated = tail call i64 @llvm.umin.i64(i64 %bufLen, i64 %pendingDataFramePaddingBytes)
  store i64 %.sroa.speculated, ptr %toSkip, align 8
  %conv = trunc i64 %.sroa.speculated to i8
  %call2 = invoke fastcc noundef zeroext i8 @_ZN8proxygen5http212_GLOBAL__N_111skipPaddingERN5folly2io6CursorEhb(ptr noundef nonnull align 8 dereferenceable(56) %cursor, i8 noundef zeroext %conv)
          to label %invoke.cont1 unwind label %terminate.lpad

invoke.cont1:                                     ; preds = %entry
  ret i8 %call2

terminate.lpad:                                   ; preds = %entry
  %0 = landingpad { ptr, i32 }
          catch ptr null
  %1 = extractvalue { ptr, i32 } %0, 0
  tail call void @__clang_call_terminate(ptr %1) #23
  unreachable
}